; Function Attrs: nounwind uwtable
define hidden i32 @Curl_poll(ptr noundef %0, i32 noundef %1, i64 noundef %2) local_unnamed_addr #0 {
  %4 = alloca %struct.timeval, align 8
  %.not = icmp ne ptr %0, null
  %5 = icmp ne i32 %1, 0
  %or.cond = and i1 %.not, %5
  br i1 %or.cond, label %.lr.ph.preheader, label %.critedge

.lr.ph.preheader:                                 ; preds = %3
  %wide.trip.count = zext i32 %1 to i64
  br label %.lr.ph

6:                                                ; preds = %.lr.ph
  %indvars.iv.next = add nuw nsw i64 %indvars.iv, 1
  %exitcond.not = icmp eq i64 %indvars.iv.next, %wide.trip.count
  br i1 %exitcond.not, label %.critedge, label %.lr.ph, !llvm.loop !12

.lr.ph:                                           ; preds = %.lr.ph.preheader, %6
  %indvars.iv = phi i64 [ 0, %.lr.ph.preheader ], [ %indvars.iv.next, %6 ]
  %7 = getelementptr inbounds nuw %struct.pollfd, ptr %0, i64 %indvars.iv
  %8 = load i32, ptr %7, align 4, !tbaa !7
  %.not38 = icmp eq i32 %8, -1
  br i1 %.not38, label %6, label %21

.critedge:                                        ; preds = %6, %3
  %.not.i = icmp eq i64 %2, 0
  br i1 %.not.i, label %Curl_wait_ms.exit, label %9

9:                                                ; preds = %.critedge
  %10 = icmp slt i64 %2, 0
  br i1 %10, label %11, label %13

11:                                               ; preds = %9
  %12 = tail call ptr @__errno_location() #9
  store i32 22, ptr %12, align 4, !tbaa !3
  br label %Curl_wait_ms.exit

13:                                               ; preds = %9
  call void @llvm.lifetime.start.p0(i64 16, ptr nonnull %4) #10
  %14 = call ptr @curlx_mstotv(ptr noundef nonnull %4, i64 noundef %2) #10
  %15 = call i32 @select(i32 noundef 0, ptr noundef null, ptr noundef null, ptr noundef null, ptr noundef %14) #10
  call void @llvm.lifetime.end.p0(i64 16, ptr nonnull %4) #10
  switch i32 %15, label %20 [
    i32 0, label %Curl_wait_ms.exit
    i32 -1, label %16
  ]

16:                                               ; preds = %13
  %17 = tail call ptr @__errno_location() #9
  %18 = load i32, ptr %17, align 4, !tbaa !3
  %19 = icmp eq i32 %18, 4
  br i1 %19, label %Curl_wait_ms.exit, label %20

20:                                               ; preds = %16, %13
  br label %Curl_wait_ms.exit

21:                                               ; preds = %.lr.ph
  %22 = icmp sgt i64 %2, 0
  br i1 %22, label %23, label %26

23:                                               ; preds = %21
  %24 = tail call i64 @llvm.umin.i64(i64 %2, i64 2147483647)
  %25 = trunc nuw nsw i64 %24 to i32
  br label %27

26:                                               ; preds = %21
  %.not41 = icmp ne i64 %2, 0
  %. = sext i1 %.not41 to i32
  br label %27

27:                                               ; preds = %26, %23
  %.034 = phi i32 [ %25, %23 ], [ %., %26 ]
  %28 = tail call i32 @poll(ptr noundef nonnull %0, i64 noundef %wide.trip.count, i32 noundef %.034) #10
  %29 = icmp slt i32 %28, 1
  br i1 %29, label %30, label %.preheader.preheader

.preheader.preheader:                             ; preds = %27
  %umax = tail call i32 @llvm.umax.i32(i32 %1, i32 1)
  %wide.trip.count49 = zext i32 %umax to i64
  br label %.preheader

30:                                               ; preds = %27
  %31 = icmp eq i32 %28, -1
  br i1 %31, label %32, label %Curl_wait_ms.exit

32:                                               ; preds = %30
  %33 = tail call ptr @__errno_location() #9
  %34 = load i32, ptr %33, align 4, !tbaa !3
  %35 = icmp ne i32 %34, 4
  %spec.select = sext i1 %35 to i32
  br label %Curl_wait_ms.exit

.preheader:                                       ; preds = %.preheader.preheader, %46
  %indvars.iv46 = phi i64 [ 0, %.preheader.preheader ], [ %indvars.iv.next47, %46 ]
  %36 = getelementptr inbounds nuw %struct.pollfd, ptr %0, i64 %indvars.iv46
  %37 = load i32, ptr %36, align 4, !tbaa !7
  %38 = icmp eq i32 %37, -1
  br i1 %38, label %46, label %condstore.split

condstore.split:                                  ; preds = %.preheader
  %39 = getelementptr inbounds nuw i8, ptr %36, i64 6
  %40 = load i16, ptr %39, align 2, !tbaa !11
  %41 = and i16 %40, 24
  %.not51 = icmp eq i16 %41, 0
  br i1 %.not51, label %46, label %42

42:                                               ; preds = %condstore.split
  %43 = and i16 %40, 8
  %.not40.not = icmp eq i16 %43, 0
  %44 = lshr i16 %40, 4
  %45 = and i16 %44, 1
  %simplifycfg.merge.v = select i1 %.not40.not, i16 %45, i16 5
  %simplifycfg.merge = or i16 %40, %simplifycfg.merge.v
  store i16 %simplifycfg.merge, ptr %39, align 2, !tbaa !11
  br label %46

46:                                               ; preds = %42, %condstore.split, %.preheader
  %indvars.iv.next47 = add nuw nsw i64 %indvars.iv46, 1
  %exitcond50.not = icmp eq i64 %indvars.iv.next47, %wide.trip.count49
  br i1 %exitcond50.not, label %Curl_wait_ms.exit, label %.preheader, !llvm.loop !14

Curl_wait_ms.exit:                                ; preds = %46, %20, %16, %13, %11, %.critedge, %32, %30
  %.035 = phi i32 [ %28, %30 ], [ %spec.select, %32 ], [ -1, %11 ], [ 0, %.critedge ], [ -1, %20 ], [ %15, %13 ], [ 0, %16 ], [ %28, %46 ]
  ret i32 %.035
}